target datalayout = "e-m:e-p270:32:32-p271:32:32-p272:64:64-i64:64-i128:128-f80:128-n8:16:32:64-S128"
target triple = "x86_64-pc-linux-gnu"

%struct._zend_llist = type { ptr, ptr, i64, i64, ptr, i8, ptr }

; Function Attrs: nounwind uwtable
define void @zend_llist_init(ptr noundef %0, i64 noundef %1, ptr noundef %2, i8 noundef zeroext %3) #0 {
  %5 = alloca ptr, align 8
  %6 = alloca i64, align 8
  %7 = alloca ptr, align 8
  %8 = alloca i8, align 1
  store ptr %0, ptr %5, align 8
  store i64 %1, ptr %6, align 8
  store ptr %2, ptr %7, align 8
  store i8 %3, ptr %8, align 1
  %9 = load ptr, ptr %5, align 8
  %10 = getelementptr inbounds %struct._zend_llist, ptr %9, i32 0, i32 0
  store ptr null, ptr %10, align 8
  %11 = load ptr, ptr %5, align 8
  %12 = getelementptr inbounds %struct._zend_llist, ptr %11, i32 0, i32 1
  store ptr null, ptr %12, align 8
  %13 = load ptr, ptr %5, align 8
  %14 = getelementptr inbounds %struct._zend_llist, ptr %13, i32 0, i32 2
  store i64 0, ptr %14, align 8
  %15 = load i64, ptr %6, align 8
  %16 = load ptr, ptr %5, align 8
  %17 = getelementptr inbounds %struct._zend_llist, ptr %16, i32 0, i32 3
  store i64 %15, ptr %17, align 8
  %18 = load ptr, ptr %7, align 8
  %19 = load ptr, ptr %5, align 8
  %20 = getelementptr inbounds %struct._zend_llist, ptr %19, i32 0, i32 4
  store ptr %18, ptr %20, align 8
  %21 = load i8, ptr %8, align 1
  %22 = load ptr, ptr %5, align 8
  %23 = getelementptr inbounds %struct._zend_llist, ptr %22, i32 0, i32 5
  store i8 %21, ptr %23, align 8
  ret void
}